target datalayout = "e-m:e-p270:32:32-p271:32:32-p272:64:64-i64:64-i128:128-f80:128-n8:16:32:64-S128"
target triple = "x86_64-pc-linux-gnu"

%struct._dcerpc_info = type { ptr, i32, i64, i8, i8, i8, i32, i32, i32, i32, i32, i32, i32, i32, ptr, ptr, ptr, ptr, %struct.anon }
%struct.anon = type { i8, ptr, ptr, ptr, i8 }

@hf_netlogon_level16 = internal global i32 0, align 4
@.str.1145 = private unnamed_addr constant [18 x i8] c"INTERACTIVE_INFO:\00", align 1
@.str.1146 = private unnamed_addr constant [14 x i8] c"NETWORK_INFO:\00", align 1
@.str.1147 = private unnamed_addr constant [14 x i8] c"SERVICE_INFO:\00", align 1
@.str.1148 = private unnamed_addr constant [14 x i8] c"GENERIC_INFO:\00", align 1
@.str.1149 = private unnamed_addr constant [29 x i8] c"INTERACTIVE_TRANSITIVE_INFO:\00", align 1
@.str.1150 = private unnamed_addr constant [24 x i8] c"NETWORK_TRANSITIVE_INFO\00", align 1
@.str.1151 = private unnamed_addr constant [24 x i8] c"SERVICE_TRANSITIVE_INFO\00", align 1
@.str.1152 = private unnamed_addr constant [12 x i8] c"TICKET_INFO\00", align 1

; Function Attrs: null_pointer_is_valid sspstrong uwtable
define internal i32 @netlogon_dissect_LEVEL(ptr noundef %0, i32 noundef %1, ptr noundef %2, ptr noundef %3, ptr noundef %4, ptr noundef %5) #0 {
  %7 = alloca ptr, align 8
  %8 = alloca i32, align 4
  %9 = alloca ptr, align 8
  %10 = alloca ptr, align 8
  %11 = alloca ptr, align 8
  %12 = alloca ptr, align 8
  %13 = alloca i16, align 2
  store ptr %0, ptr %7, align 8
  store i32 %1, ptr %8, align 4
  store ptr %2, ptr %9, align 8
  store ptr %3, ptr %10, align 8
  store ptr %4, ptr %11, align 8
  store ptr %5, ptr %12, align 8
  call void @llvm.lifetime.start.p0(i64 2, ptr %13) #15
  store i16 0, ptr %13, align 2
  %14 = load ptr, ptr %7, align 8
  %15 = load i32, ptr %8, align 4
  %16 = load ptr, ptr %9, align 8
  %17 = load ptr, ptr %10, align 8
  %18 = load ptr, ptr %11, align 8
  %19 = load ptr, ptr %12, align 8
  %20 = load i32, ptr @hf_netlogon_level16, align 4
  %21 = call i32 @dissect_ndr_uint16(ptr noundef %14, i32 noundef %15, ptr noundef %16, ptr noundef %17, ptr noundef %18, ptr noundef %19, i32 noundef %20, ptr noundef %13)
  store i32 %21, ptr %8, align 4
  %22 = load ptr, ptr %11, align 8
  %23 = getelementptr inbounds nuw %struct._dcerpc_info, ptr %22, i32 0, i32 4
  %24 = load i8, ptr %23, align 1, !range !6, !noundef !7
  %25 = trunc i8 %24 to i1
  br i1 %25, label %35, label %26

26:                                               ; preds = %6
  %27 = load i32, ptr %8, align 4
  %28 = and i32 %27, 3
  %29 = icmp ne i32 %28, 0
  br i1 %29, label %30, label %34

30:                                               ; preds = %26
  %31 = load i32, ptr %8, align 4
  %32 = and i32 %31, -4
  %33 = add i32 %32, 4
  store i32 %33, ptr %8, align 4
  br label %34

34:                                               ; preds = %30, %26
  br label %35

35:                                               ; preds = %34, %6
  %36 = load i16, ptr %13, align 2
  %37 = zext i16 %36 to i32
  switch i32 %37, label %102 [
    i32 1, label %38
    i32 2, label %46
    i32 3, label %54
    i32 4, label %62
    i32 5, label %70
    i32 6, label %78
    i32 7, label %86
    i32 8, label %94
  ]

38:                                               ; preds = %35
  %39 = load ptr, ptr %7, align 8
  %40 = load i32, ptr %8, align 4
  %41 = load ptr, ptr %9, align 8
  %42 = load ptr, ptr %10, align 8
  %43 = load ptr, ptr %11, align 8
  %44 = load ptr, ptr %12, align 8
  %45 = call i32 @dissect_ndr_pointer(ptr noundef %39, i32 noundef %40, ptr noundef %41, ptr noundef %42, ptr noundef %43, ptr noundef %44, ptr noundef @netlogon_dissect_INTERACTIVE_INFO, i32 noundef 2, ptr noundef @.str.1145, i32 noundef -1)
  store i32 %45, ptr %8, align 4
  br label %102

46:                                               ; preds = %35
  %47 = load ptr, ptr %7, align 8
  %48 = load i32, ptr %8, align 4
  %49 = load ptr, ptr %9, align 8
  %50 = load ptr, ptr %10, align 8
  %51 = load ptr, ptr %11, align 8
  %52 = load ptr, ptr %12, align 8
  %53 = call i32 @dissect_ndr_pointer(ptr noundef %47, i32 noundef %48, ptr noundef %49, ptr noundef %50, ptr noundef %51, ptr noundef %52, ptr noundef @netlogon_dissect_NETWORK_INFO, i32 noundef 2, ptr noundef @.str.1146, i32 noundef -1)
  store i32 %53, ptr %8, align 4
  br label %102

54:                                               ; preds = %35
  %55 = load ptr, ptr %7, align 8
  %56 = load i32, ptr %8, align 4
  %57 = load ptr, ptr %9, align 8
  %58 = load ptr, ptr %10, align 8
  %59 = load ptr, ptr %11, align 8
  %60 = load ptr, ptr %12, align 8
  %61 = call i32 @dissect_ndr_pointer(ptr noundef %55, i32 noundef %56, ptr noundef %57, ptr noundef %58, ptr noundef %59, ptr noundef %60, ptr noundef @netlogon_dissect_SERVICE_INFO, i32 noundef 2, ptr noundef @.str.1147, i32 noundef -1)
  store i32 %61, ptr %8, align 4
  br label %102

62:                                               ; preds = %35
  %63 = load ptr, ptr %7, align 8
  %64 = load i32, ptr %8, align 4
  %65 = load ptr, ptr %9, align 8
  %66 = load ptr, ptr %10, align 8
  %67 = load ptr, ptr %11, align 8
  %68 = load ptr, ptr %12, align 8
  %69 = call i32 @dissect_ndr_pointer(ptr noundef %63, i32 noundef %64, ptr noundef %65, ptr noundef %66, ptr noundef %67, ptr noundef %68, ptr noundef @netlogon_dissect_GENERIC_INFO, i32 noundef 2, ptr noundef @.str.1148, i32 noundef -1)
  store i32 %69, ptr %8, align 4
  br label %102

70:                                               ; preds = %35
  %71 = load ptr, ptr %7, align 8
  %72 = load i32, ptr %8, align 4
  %73 = load ptr, ptr %9, align 8
  %74 = load ptr, ptr %10, align 8
  %75 = load ptr, ptr %11, align 8
  %76 = load ptr, ptr %12, align 8
  %77 = call i32 @dissect_ndr_pointer(ptr noundef %71, i32 noundef %72, ptr noundef %73, ptr noundef %74, ptr noundef %75, ptr noundef %76, ptr noundef @netlogon_dissect_INTERACTIVE_INFO, i32 noundef 2, ptr noundef @.str.1149, i32 noundef -1)
  store i32 %77, ptr %8, align 4
  br label %102

78:                                               ; preds = %35
  %79 = load ptr, ptr %7, align 8
  %80 = load i32, ptr %8, align 4
  %81 = load ptr, ptr %9, align 8
  %82 = load ptr, ptr %10, align 8
  %83 = load ptr, ptr %11, align 8
  %84 = load ptr, ptr %12, align 8
  %85 = call i32 @dissect_ndr_pointer(ptr noundef %79, i32 noundef %80, ptr noundef %81, ptr noundef %82, ptr noundef %83, ptr noundef %84, ptr noundef @netlogon_dissect_NETWORK_INFO, i32 noundef 2, ptr noundef @.str.1150, i32 noundef -1)
  store i32 %85, ptr %8, align 4
  br label %102

86:                                               ; preds = %35
  %87 = load ptr, ptr %7, align 8
  %88 = load i32, ptr %8, align 4
  %89 = load ptr, ptr %9, align 8
  %90 = load ptr, ptr %10, align 8
  %91 = load ptr, ptr %11, align 8
  %92 = load ptr, ptr %12, align 8
  %93 = call i32 @dissect_ndr_pointer(ptr noundef %87, i32 noundef %88, ptr noundef %89, ptr noundef %90, ptr noundef %91, ptr noundef %92, ptr noundef @netlogon_dissect_SERVICE_INFO, i32 noundef 2, ptr noundef @.str.1151, i32 noundef -1)
  store i32 %93, ptr %8, align 4
  br label %102

94:                                               ; preds = %35
  %95 = load ptr, ptr %7, align 8
  %96 = load i32, ptr %8, align 4
  %97 = load ptr, ptr %9, align 8
  %98 = load ptr, ptr %10, align 8
  %99 = load ptr, ptr %11, align 8
  %100 = load ptr, ptr %12, align 8
  %101 = call i32 @dissect_ndr_pointer(ptr noundef %95, i32 noundef %96, ptr noundef %97, ptr noundef %98, ptr noundef %99, ptr noundef %100, ptr noundef @netlogon_dissect_TICKET_INFO, i32 noundef 2, ptr noundef @.str.1152, i32 noundef -1)
  store i32 %101, ptr %8, align 4
  br label %102

102:                                              ; preds = %35, %94, %86, %78, %70, %62, %54, %46, %38
  %103 = load i32, ptr %8, align 4
  call void @llvm.lifetime.end.p0(i64 2, ptr %13) #15
  ret i32 %103
}