; Function Attrs: null_pointer_is_valid sspstrong uwtable
define internal i32 @netlogon_dissect_LEVEL(ptr noundef %0, i32 noundef %1, ptr noundef %2, ptr noundef %3, ptr noundef %4, ptr noundef %5) #0 {
  %7 = alloca i16, align 2
  call void @llvm.lifetime.start.p0(i64 2, ptr nonnull %7) #15
  store i16 0, ptr %7, align 2
  %8 = load i32, ptr @hf_netlogon_level16, align 4
  %9 = call i32 @dissect_ndr_uint16(ptr noundef %0, i32 noundef %1, ptr noundef %2, ptr noundef %3, ptr noundef %4, ptr noundef %5, i32 noundef %8, ptr noundef nonnull %7)
  %10 = getelementptr inbounds nuw i8, ptr %4, i64 25
  %11 = load i8, ptr %10, align 1, !range !6, !noundef !7
  %12 = trunc nuw i8 %11 to i1
  %13 = and i32 %9, 3
  %.not = icmp eq i32 %13, 0
  %or.cond = select i1 %12, i1 true, i1 %.not
  %14 = and i32 %9, -4
  %15 = add i32 %14, 4
  %.0 = select i1 %or.cond, i32 %9, i32 %15
  %16 = load i16, ptr %7, align 2
  switch i16 %16, label %33 [
    i16 1, label %17
    i16 2, label %19
    i16 3, label %21
    i16 4, label %23
    i16 5, label %25
    i16 6, label %27
    i16 7, label %29
    i16 8, label %31
  ]

17:                                               ; preds = %6
  %18 = call i32 @dissect_ndr_pointer(ptr noundef %0, i32 noundef %.0, ptr noundef %2, ptr noundef %3, ptr noundef %4, ptr noundef %5, ptr noundef nonnull @netlogon_dissect_INTERACTIVE_INFO, i32 noundef 2, ptr noundef nonnull @.str.1145, i32 noundef -1)
  br label %33

19:                                               ; preds = %6
  %20 = call i32 @dissect_ndr_pointer(ptr noundef %0, i32 noundef %.0, ptr noundef %2, ptr noundef %3, ptr noundef %4, ptr noundef %5, ptr noundef nonnull @netlogon_dissect_NETWORK_INFO, i32 noundef 2, ptr noundef nonnull @.str.1146, i32 noundef -1)
  br label %33

21:                                               ; preds = %6
  %22 = call i32 @dissect_ndr_pointer(ptr noundef %0, i32 noundef %.0, ptr noundef %2, ptr noundef %3, ptr noundef %4, ptr noundef %5, ptr noundef nonnull @netlogon_dissect_SERVICE_INFO, i32 noundef 2, ptr noundef nonnull @.str.1147, i32 noundef -1)
  br label %33

23:                                               ; preds = %6
  %24 = call i32 @dissect_ndr_pointer(ptr noundef %0, i32 noundef %.0, ptr noundef %2, ptr noundef %3, ptr noundef %4, ptr noundef %5, ptr noundef nonnull @netlogon_dissect_GENERIC_INFO, i32 noundef 2, ptr noundef nonnull @.str.1148, i32 noundef -1)
  br label %33

25:                                               ; preds = %6
  %26 = call i32 @dissect_ndr_pointer(ptr noundef %0, i32 noundef %.0, ptr noundef %2, ptr noundef %3, ptr noundef %4, ptr noundef %5, ptr noundef nonnull @netlogon_dissect_INTERACTIVE_INFO, i32 noundef 2, ptr noundef nonnull @.str.1149, i32 noundef -1)
  br label %33

27:                                               ; preds = %6
  %28 = call i32 @dissect_ndr_pointer(ptr noundef %0, i32 noundef %.0, ptr noundef %2, ptr noundef %3, ptr noundef %4, ptr noundef %5, ptr noundef nonnull @netlogon_dissect_NETWORK_INFO, i32 noundef 2, ptr noundef nonnull @.str.1150, i32 noundef -1)
  br label %33

29:                                               ; preds = %6
  %30 = call i32 @dissect_ndr_pointer(ptr noundef %0, i32 noundef %.0, ptr noundef %2, ptr noundef %3, ptr noundef %4, ptr noundef %5, ptr noundef nonnull @netlogon_dissect_SERVICE_INFO, i32 noundef 2, ptr noundef nonnull @.str.1151, i32 noundef -1)
  br label %33

31:                                               ; preds = %6
  %32 = call i32 @dissect_ndr_pointer(ptr noundef %0, i32 noundef %.0, ptr noundef %2, ptr noundef %3, ptr noundef %4, ptr noundef %5, ptr noundef nonnull @netlogon_dissect_TICKET_INFO, i32 noundef 2, ptr noundef nonnull @.str.1152, i32 noundef -1)
  br label %33

33:                                               ; preds = %31, %29, %27, %25, %23, %21, %19, %17, %6
  %.1 = phi i32 [ %.0, %6 ], [ %32, %31 ], [ %30, %29 ], [ %28, %27 ], [ %26, %25 ], [ %24, %23 ], [ %22, %21 ], [ %20, %19 ], [ %18, %17 ]
  call void @llvm.lifetime.end.p0(i64 2, ptr nonnull %7) #15
  ret i32 %.1
}